(lp0
(lp1
S'corpora/fraser-corpus-annotated'
p2
aS'/.?[A-Za-z0-9].?/ !< __'
p3
aS'C'
p4
aa(lp5
VTotals
p6
a(lp7
I1954
aI19359
aa(lp8
I1956
aI11772
aa(lp9
I1957
aI28805
aa(lp10
I1958
aI29288
aa(lp11
I1959
aI32118
aa(lp12
I1960
aI33773
aa(lp13
I1961
aI40482
aa(lp14
I1962
aI38375
aa(lp15
I1963
aI42501
aa(lp16
I1964
aI40382
aa(lp17
I1965
aI34474
aa(lp18
I1966
aI2663
aa(lp19
I1967
aI63608
aa(lp20
I1968
aI22040
aa(lp21
I1969
aI13851
aa(lp22
I1970
aI38053
aa(lp23
I1971
aI24175
aa(lp24
I1972
aI36176
aa(lp25
I1973
aI31620
aa(lp26
I1974
aI18758
aa(lp27
I1975
aI30688
aa(lp28
I1981
aI19186
aa(lp29
I1982
aI19245
aa(lp30
VTotal
p31
aI671392
aaa.