(lp0
(lp1
S'corpora/fraser-corpus-annotated'
p2
aS'MD < __'
p3
aS't'
p4
aa(lp5
(lp6
Vwould
p7
a(lp8
I1954
aI127
aa(lp9
I1956
aI115
aa(lp10
I1957
aI305
aa(lp11
I1958
aI270
aa(lp12
I1959
aI400
aa(lp13
I1960
aI371
aa(lp14
I1961
aI517
aa(lp15
I1962
aI543
aa(lp16
I1963
aI571
aa(lp17
I1964
aI567
aa(lp18
I1965
aI601
aa(lp19
I1966
aI24
aa(lp20
I1967
aI677
aa(lp21
I1968
aI130
aa(lp22
I1969
aI138
aa(lp23
I1970
aI455
aa(lp24
I1971
aI329
aa(lp25
I1972
aI423
aa(lp26
I1973
aI463
aa(lp27
I1974
aI238
aa(lp28
I1975
aI279
aa(lp29
I1981
aI171
aa(lp30
I1982
aI187
aa(lp31
VTotal
p32
aI7901
aaa(lp33
Vcould
p34
a(lp35
I1954
aI112
aa(lp36
I1956
aI56
aa(lp37
I1957
aI134
aa(lp38
I1958
aI152
aa(lp39
I1959
aI181
aa(lp40
I1960
aI181
aa(lp41
I1961
aI223
aa(lp42
I1962
aI207
aa(lp43
I1963
aI200
aa(lp44
I1964
aI217
aa(lp45
I1965
aI176
aa(lp46
I1966
aI10
aa(lp47
I1967
aI168
aa(lp48
I1968
aI51
aa(lp49
I1969
aI39
aa(lp50
I1970
aI101
aa(lp51
I1971
aI76
aa(lp52
I1972
aI130
aa(lp53
I1973
aI136
aa(lp54
I1974
aI85
aa(lp55
I1975
aI90
aa(lp56
I1981
aI39
aa(lp57
I1982
aI39
aa(lp58
g32
aI2803
aaa(lp59
Vmight
p60
a(lp61
I1954
aI100
aa(lp62
I1956
aI42
aa(lp63
I1957
aI97
aa(lp64
I1958
aI83
aa(lp65
I1959
aI118
aa(lp66
I1960
aI108
aa(lp67
I1961
aI138
aa(lp68
I1962
aI148
aa(lp69
I1963
aI128
aa(lp70
I1964
aI148
aa(lp71
I1965
aI115
aa(lp72
I1966
aI4
aa(lp73
I1967
aI113
aa(lp74
I1968
aI34
aa(lp75
I1969
aI18
aa(lp76
I1970
aI63
aa(lp77
I1971
aI62
aa(lp78
I1972
aI100
aa(lp79
I1973
aI51
aa(lp80
I1974
aI46
aa(lp81
I1975
aI62
aa(lp82
I1981
aI15
aa(lp83
I1982
aI11
aa(lp84
g32
aI1804
aaa(lp85
Vshould
p86
a(lp87
I1954
aI28
aa(lp88
I1956
aI31
aa(lp89
I1957
aI70
aa(lp90
I1958
aI48
aa(lp91
I1959
aI84
aa(lp92
I1960
aI68
aa(lp93
I1961
aI119
aa(lp94
I1962
aI114
aa(lp95
I1963
aI129
aa(lp96
I1964
aI77
aa(lp97
I1965
aI88
aa(lp98
I1966
aI2
aa(lp99
I1967
aI113
aa(lp100
I1968
aI24
aa(lp101
I1969
aI31
aa(lp102
I1970
aI68
aa(lp103
I1971
aI28
aa(lp104
I1972
aI70
aa(lp105
I1973
aI33
aa(lp106
I1974
aI26
aa(lp107
I1975
aI52
aa(lp108
I1981
aI32
aa(lp109
I1982
aI15
aa(lp110
g32
aI1350
aaa(lp111
Vought
p112
a(lp113
I1954
aI0
aa(lp114
I1956
aI0
aa(lp115
I1957
aI0
aa(lp116
I1958
aI0
aa(lp117
I1959
aI0
aa(lp118
I1960
aI1
aa(lp119
I1961
aI1
aa(lp120
I1962
aI0
aa(lp121
I1963
aI0
aa(lp122
I1964
aI0
aa(lp123
I1965
aI0
aa(lp124
I1966
aI0
aa(lp125
I1967
aI1
aa(lp126
I1968
aI0
aa(lp127
I1969
aI0
aa(lp128
I1970
aI1
aa(lp129
I1971
aI4
aa(lp130
I1972
aI4
aa(lp131
I1973
aI30
aa(lp132
I1974
aI23
aa(lp133
I1975
aI5
aa(lp134
I1981
aI0
aa(lp135
I1982
aI0
aa(lp136
g32
aI70
aaa(lp137
Vhave
p138
a(lp139
I1954
aI2
aa(lp140
I1956
aI0
aa(lp141
I1957
aI0
aa(lp142
I1958
aI1
aa(lp143
I1959
aI1
aa(lp144
I1960
aI0
aa(lp145
I1961
aI1
aa(lp146
I1962
aI1
aa(lp147
I1963
aI1
aa(lp148
I1964
aI0
aa(lp149
I1965
aI0
aa(lp150
I1966
aI0
aa(lp151
I1967
aI2
aa(lp152
I1968
aI1
aa(lp153
I1969
aI0
aa(lp154
I1970
aI0
aa(lp155
I1971
aI0
aa(lp156
I1972
aI0
aa(lp157
I1973
aI5
aa(lp158
I1974
aI0
aa(lp159
I1975
aI0
aa(lp160
I1981
aI1
aa(lp161
I1982
aI1
aa(lp162
g32
aI17
aaa(lp163
Vneed
p164
a(lp165
I1954
aI0
aa(lp166
I1956
aI0
aa(lp167
I1957
aI0
aa(lp168
I1958
aI1
aa(lp169
I1959
aI1
aa(lp170
I1960
aI1
aa(lp171
I1961
aI0
aa(lp172
I1962
aI1
aa(lp173
I1963
aI1
aa(lp174
I1964
aI0
aa(lp175
I1965
aI0
aa(lp176
I1966
aI0
aa(lp177
I1967
aI0
aa(lp178
I1968
aI0
aa(lp179
I1969
aI0
aa(lp180
I1970
aI0
aa(lp181
I1971
aI1
aa(lp182
I1972
aI1
aa(lp183
I1973
aI0
aa(lp184
I1974
aI0
aa(lp185
I1975
aI0
aa(lp186
I1981
aI0
aa(lp187
I1982
aI0
aa(lp188
g32
aI7
aaaa(lp189
VTotals
p190
a(lp191
I1954
aI369
aa(lp192
I1956
aI244
aa(lp193
I1957
aI606
aa(lp194
I1958
aI555
aa(lp195
I1959
aI785
aa(lp196
I1960
aI730
aa(lp197
I1961
aI999
aa(lp198
I1962
aI1014
aa(lp199
I1963
aI1030
aa(lp200
I1964
aI1009
aa(lp201
I1965
aI980
aa(lp202
I1966
aI40
aa(lp203
I1967
aI1074
aa(lp204
I1968
aI240
aa(lp205
I1969
aI226
aa(lp206
I1970
aI688
aa(lp207
I1971
aI500
aa(lp208
I1972
aI728
aa(lp209
I1973
aI718
aa(lp210
I1974
aI418
aa(lp211
I1975
aI488
aa(lp212
I1981
aI258
aa(lp213
I1982
aI253
aa(lp214
g32
aI13952
aaa.