(lp0
(lp1
S'corpora/fraser-corpus-annotated'
p2
aS'MD < __'
p3
aS't'
p4
aa(lp5
(lp6
Vwill
p7
a(lp8
I1954
aI79
aa(lp9
I1956
aI79
aa(lp10
I1957
aI212
aa(lp11
I1958
aI165
aa(lp12
I1959
aI198
aa(lp13
I1960
aI184
aa(lp14
I1961
aI225
aa(lp15
I1962
aI250
aa(lp16
I1963
aI314
aa(lp17
I1964
aI315
aa(lp18
I1965
aI316
aa(lp19
I1966
aI15
aa(lp20
I1967
aI359
aa(lp21
I1968
aI80
aa(lp22
I1969
aI62
aa(lp23
I1970
aI217
aa(lp24
I1971
aI224
aa(lp25
I1972
aI296
aa(lp26
I1973
aI235
aa(lp27
I1974
aI96
aa(lp28
I1975
aI148
aa(lp29
I1981
aI149
aa(lp30
I1982
aI157
aa(lp31
VTotal
p32
aI4375
aaa(lp33
Vwould
p34
a(lp35
I1954
aI47
aa(lp36
I1956
aI34
aa(lp37
I1957
aI91
aa(lp38
I1958
aI103
aa(lp39
I1959
aI200
aa(lp40
I1960
aI185
aa(lp41
I1961
aI291
aa(lp42
I1962
aI285
aa(lp43
I1963
aI256
aa(lp44
I1964
aI249
aa(lp45
I1965
aI283
aa(lp46
I1966
aI9
aa(lp47
I1967
aI317
aa(lp48
I1968
aI49
aa(lp49
I1969
aI76
aa(lp50
I1970
aI236
aa(lp51
I1971
aI102
aa(lp52
I1972
aI121
aa(lp53
I1973
aI208
aa(lp54
I1974
aI134
aa(lp55
I1975
aI130
aa(lp56
I1981
aI22
aa(lp57
I1982
aI29
aa(lp58
g32
aI3457
aaa(lp59
Vcan
p60
a(lp61
I1954
aI78
aa(lp62
I1956
aI43
aa(lp63
I1957
aI92
aa(lp64
I1958
aI112
aa(lp65
I1959
aI117
aa(lp66
I1960
aI112
aa(lp67
I1961
aI150
aa(lp68
I1962
aI119
aa(lp69
I1963
aI122
aa(lp70
I1964
aI123
aa(lp71
I1965
aI103
aa(lp72
I1966
aI3
aa(lp73
I1967
aI99
aa(lp74
I1968
aI36
aa(lp75
I1969
aI21
aa(lp76
I1970
aI62
aa(lp77
I1971
aI49
aa(lp78
I1972
aI94
aa(lp79
I1973
aI76
aa(lp80
I1974
aI36
aa(lp81
I1975
aI59
aa(lp82
I1981
aI30
aa(lp83
I1982
aI28
aa(lp84
g32
aI1764
aaa(lp85
Vshould
p86
a(lp87
I1954
aI22
aa(lp88
I1956
aI28
aa(lp89
I1957
aI67
aa(lp90
I1958
aI40
aa(lp91
I1959
aI83
aa(lp92
I1960
aI66
aa(lp93
I1961
aI115
aa(lp94
I1962
aI113
aa(lp95
I1963
aI124
aa(lp96
I1964
aI75
aa(lp97
I1965
aI82
aa(lp98
I1966
aI2
aa(lp99
I1967
aI109
aa(lp100
I1968
aI24
aa(lp101
I1969
aI31
aa(lp102
I1970
aI63
aa(lp103
I1971
aI28
aa(lp104
I1972
aI65
aa(lp105
I1973
aI33
aa(lp106
I1974
aI26
aa(lp107
I1975
aI51
aa(lp108
I1981
aI31
aa(lp109
I1982
aI15
aa(lp110
g32
aI1293
aaa(lp111
Vcould
p112
a(lp113
I1954
aI34
aa(lp114
I1956
aI10
aa(lp115
I1957
aI41
aa(lp116
I1958
aI40
aa(lp117
I1959
aI61
aa(lp118
I1960
aI63
aa(lp119
I1961
aI65
aa(lp120
I1962
aI85
aa(lp121
I1963
aI75
aa(lp122
I1964
aI91
aa(lp123
I1965
aI71
aa(lp124
I1966
aI7
aa(lp125
I1967
aI67
aa(lp126
I1968
aI15
aa(lp127
I1969
aI18
aa(lp128
I1970
aI38
aa(lp129
I1971
aI26
aa(lp130
I1972
aI34
aa(lp131
I1973
aI56
aa(lp132
I1974
aI40
aa(lp133
I1975
aI27
aa(lp134
I1981
aI9
aa(lp135
I1982
aI10
aa(lp136
g32
aI983
aaa(lp137
Vmust
p138
a(lp139
I1954
aI58
aa(lp140
I1956
aI15
aa(lp141
I1957
aI56
aa(lp142
I1958
aI43
aa(lp143
I1959
aI45
aa(lp144
I1960
aI28
aa(lp145
I1961
aI38
aa(lp146
I1962
aI35
aa(lp147
I1963
aI40
aa(lp148
I1964
aI39
aa(lp149
I1965
aI47
aa(lp150
I1966
aI3
aa(lp151
I1967
aI37
aa(lp152
I1968
aI16
aa(lp153
I1969
aI7
aa(lp154
I1970
aI31
aa(lp155
I1971
aI28
aa(lp156
I1972
aI72
aa(lp157
I1973
aI20
aa(lp158
I1974
aI17
aa(lp159
I1975
aI46
aa(lp160
I1981
aI11
aa(lp161
I1982
aI6
aa(lp162
g32
aI738
aaa(lp163
Vmay
p164
a(lp165
I1954
aI40
aa(lp166
I1956
aI25
aa(lp167
I1957
aI39
aa(lp168
I1958
aI29
aa(lp169
I1959
aI67
aa(lp170
I1960
aI56
aa(lp171
I1961
aI48
aa(lp172
I1962
aI69
aa(lp173
I1963
aI68
aa(lp174
I1964
aI76
aa(lp175
I1965
aI50
aa(lp176
I1966
aI1
aa(lp177
I1967
aI40
aa(lp178
I1968
aI11
aa(lp179
I1969
aI5
aa(lp180
I1970
aI17
aa(lp181
I1971
aI22
aa(lp182
I1972
aI19
aa(lp183
I1973
aI7
aa(lp184
I1974
aI12
aa(lp185
I1975
aI6
aa(lp186
I1981
aI2
aa(lp187
I1982
aI2
aa(lp188
g32
aI711
aaa(lp189
Vmight
p190
a(lp191
I1954
aI2
aa(lp192
I1956
aI2
aa(lp193
I1957
aI2
aa(lp194
I1958
aI11
aa(lp195
I1959
aI6
aa(lp196
I1960
aI24
aa(lp197
I1961
aI52
aa(lp198
I1962
aI44
aa(lp199
I1963
aI20
aa(lp200
I1964
aI33
aa(lp201
I1965
aI18
aa(lp202
I1966
aI0
aa(lp203
I1967
aI36
aa(lp204
I1968
aI7
aa(lp205
I1969
aI6
aa(lp206
I1970
aI15
aa(lp207
I1971
aI12
aa(lp208
I1972
aI9
aa(lp209
I1973
aI24
aa(lp210
I1974
aI17
aa(lp211
I1975
aI10
aa(lp212
I1981
aI2
aa(lp213
I1982
aI3
aa(lp214
g32
aI355
aaa(lp215
Vought
p216
a(lp217
I1954
aI0
aa(lp218
I1956
aI0
aa(lp219
I1957
aI0
aa(lp220
I1958
aI0
aa(lp221
I1959
aI0
aa(lp222
I1960
aI1
aa(lp223
I1961
aI1
aa(lp224
I1962
aI0
aa(lp225
I1963
aI0
aa(lp226
I1964
aI0
aa(lp227
I1965
aI0
aa(lp228
I1966
aI0
aa(lp229
I1967
aI1
aa(lp230
I1968
aI0
aa(lp231
I1969
aI0
aa(lp232
I1970
aI1
aa(lp233
I1971
aI4
aa(lp234
I1972
aI4
aa(lp235
I1973
aI30
aa(lp236
I1974
aI23
aa(lp237
I1975
aI5
aa(lp238
I1981
aI0
aa(lp239
I1982
aI0
aa(lp240
g32
aI70
aaa(lp241
Vshall
p242
a(lp243
I1954
aI6
aa(lp244
I1956
aI3
aa(lp245
I1957
aI3
aa(lp246
I1958
aI8
aa(lp247
I1959
aI1
aa(lp248
I1960
aI2
aa(lp249
I1961
aI4
aa(lp250
I1962
aI1
aa(lp251
I1963
aI5
aa(lp252
I1964
aI2
aa(lp253
I1965
aI6
aa(lp254
I1966
aI0
aa(lp255
I1967
aI4
aa(lp256
I1968
aI0
aa(lp257
I1969
aI0
aa(lp258
I1970
aI5
aa(lp259
I1971
aI0
aa(lp260
I1972
aI5
aa(lp261
I1973
aI0
aa(lp262
I1974
aI0
aa(lp263
I1975
aI1
aa(lp264
I1981
aI1
aa(lp265
I1982
aI0
aa(lp266
g32
aI57
aaa(lp267
Vca
p268
a(lp269
I1954
aI0
aa(lp270
I1956
aI3
aa(lp271
I1957
aI1
aa(lp272
I1958
aI0
aa(lp273
I1959
aI3
aa(lp274
I1960
aI6
aa(lp275
I1961
aI8
aa(lp276
I1962
aI3
aa(lp277
I1963
aI3
aa(lp278
I1964
aI3
aa(lp279
I1965
aI2
aa(lp280
I1966
aI0
aa(lp281
I1967
aI2
aa(lp282
I1968
aI0
aa(lp283
I1969
aI0
aa(lp284
I1970
aI1
aa(lp285
I1971
aI1
aa(lp286
I1972
aI2
aa(lp287
I1973
aI4
aa(lp288
I1974
aI9
aa(lp289
I1975
aI4
aa(lp290
I1981
aI0
aa(lp291
I1982
aI1
aa(lp292
g32
aI56
aaa(lp293
Vwo
p294
a(lp295
I1954
aI0
aa(lp296
I1956
aI0
aa(lp297
I1957
aI0
aa(lp298
I1958
aI2
aa(lp299
I1959
aI1
aa(lp300
I1960
aI2
aa(lp301
I1961
aI0
aa(lp302
I1962
aI8
aa(lp303
I1963
aI0
aa(lp304
I1964
aI3
aa(lp305
I1965
aI2
aa(lp306
I1966
aI0
aa(lp307
I1967
aI1
aa(lp308
I1968
aI0
aa(lp309
I1969
aI0
aa(lp310
I1970
aI0
aa(lp311
I1971
aI2
aa(lp312
I1972
aI2
aa(lp313
I1973
aI15
aa(lp314
I1974
aI6
aa(lp315
I1975
aI1
aa(lp316
I1981
aI0
aa(lp317
I1982
aI1
aa(lp318
g32
aI46
aaa(lp319
V'll
p320
a(lp321
I1954
aI1
aa(lp322
I1956
aI2
aa(lp323
I1957
aI2
aa(lp324
I1958
aI0
aa(lp325
I1959
aI1
aa(lp326
I1960
aI0
aa(lp327
I1961
aI1
aa(lp328
I1962
aI0
aa(lp329
I1963
aI1
aa(lp330
I1964
aI0
aa(lp331
I1965
aI0
aa(lp332
I1966
aI0
aa(lp333
I1967
aI0
aa(lp334
I1968
aI1
aa(lp335
I1969
aI0
aa(lp336
I1970
aI2
aa(lp337
I1971
aI1
aa(lp338
I1972
aI4
aa(lp339
I1973
aI5
aa(lp340
I1974
aI2
aa(lp341
I1975
aI0
aa(lp342
I1981
aI0
aa(lp343
I1982
aI0
aa(lp344
g32
aI23
aaa(lp345
V'd
p346
a(lp347
I1954
aI2
aa(lp348
I1956
aI0
aa(lp349
I1957
aI0
aa(lp350
I1958
aI1
aa(lp351
I1959
aI1
aa(lp352
I1960
aI0
aa(lp353
I1961
aI1
aa(lp354
I1962
aI1
aa(lp355
I1963
aI1
aa(lp356
I1964
aI0
aa(lp357
I1965
aI0
aa(lp358
I1966
aI0
aa(lp359
I1967
aI2
aa(lp360
I1968
aI1
aa(lp361
I1969
aI0
aa(lp362
I1970
aI0
aa(lp363
I1971
aI0
aa(lp364
I1972
aI0
aa(lp365
I1973
aI5
aa(lp366
I1974
aI0
aa(lp367
I1975
aI0
aa(lp368
I1981
aI1
aa(lp369
I1982
aI1
aa(lp370
g32
aI17
aaa(lp371
Vneed
p372
a(lp373
I1954
aI0
aa(lp374
I1956
aI0
aa(lp375
I1957
aI0
aa(lp376
I1958
aI1
aa(lp377
I1959
aI1
aa(lp378
I1960
aI1
aa(lp379
I1961
aI0
aa(lp380
I1962
aI1
aa(lp381
I1963
aI1
aa(lp382
I1964
aI0
aa(lp383
I1965
aI0
aa(lp384
I1966
aI0
aa(lp385
I1967
aI0
aa(lp386
I1968
aI0
aa(lp387
I1969
aI0
aa(lp388
I1970
aI0
aa(lp389
I1971
aI1
aa(lp390
I1972
aI1
aa(lp391
I1973
aI0
aa(lp392
I1974
aI0
aa(lp393
I1975
aI0
aa(lp394
I1981
aI0
aa(lp395
I1982
aI0
aa(lp396
g32
aI7
aaaa(lp397
VTotals
p398
a(lp399
I1954
aI369
aa(lp400
I1956
aI244
aa(lp401
I1957
aI606
aa(lp402
I1958
aI555
aa(lp403
I1959
aI785
aa(lp404
I1960
aI730
aa(lp405
I1961
aI999
aa(lp406
I1962
aI1014
aa(lp407
I1963
aI1030
aa(lp408
I1964
aI1009
aa(lp409
I1965
aI980
aa(lp410
I1966
aI40
aa(lp411
I1967
aI1074
aa(lp412
I1968
aI240
aa(lp413
I1969
aI226
aa(lp414
I1970
aI688
aa(lp415
I1971
aI500
aa(lp416
I1972
aI728
aa(lp417
I1973
aI718
aa(lp418
I1974
aI418
aa(lp419
I1975
aI488
aa(lp420
I1981
aI258
aa(lp421
I1982
aI253
aa(lp422
g32
aI13952
aaa.